ARM GAS  C:\Users\Zeus\AppData\Local\Temp\ccQ1p73j.s 			page 1


   1              		.cpu cortex-m0plus
   2              		.fpu softvfp
   3              		.eabi_attribute 20, 1
   4              		.eabi_attribute 21, 1
   5              		.eabi_attribute 23, 3
   6              		.eabi_attribute 24, 1
   7              		.eabi_attribute 25, 1
   8              		.eabi_attribute 26, 1
   9              		.eabi_attribute 30, 1
  10              		.eabi_attribute 34, 0
  11              		.eabi_attribute 18, 4
  12              		.code	16
  13              		.file	"main.c"
  14              		.text
  15              	.Ltext0:
  16              		.cfi_sections	.debug_frame
  17              		.section	.text.main,"ax",%progbits
  18              		.align	2
  19              		.global	main
  20              		.code	16
  21              		.thumb_func
  22              		.type	main, %function
  23              	main:
  24              	.LFB35:
  25              		.file 1 "main.c"
   1:main.c        **** /* ========================================
   2:main.c        ****  *
   3:main.c        ****  * Copyright YOUR COMPANY, THE YEAR
   4:main.c        ****  * All Rights Reserved
   5:main.c        ****  * UNPUBLISHED, LICENSED SOFTWARE.
   6:main.c        ****  *
   7:main.c        ****  * CONFIDENTIAL AND PROPRIETARY INFORMATION
   8:main.c        ****  * WHICH IS THE PROPERTY OF your company.
   9:main.c        ****  *
  10:main.c        ****  * ========================================
  11:main.c        **** */
  12:main.c        **** #include <project.h>
  13:main.c        **** #include <stdlib.h>
  14:main.c        **** 
  15:main.c        **** #include "ssd1306.h"
  16:main.c        **** 
  17:main.c        **** #define DISPLAY_ADDRESS 0x3c // 011110+SA0+RW - 0x3C or 0x3D
  18:main.c        **** 
  19:main.c        **** int main(){
  26              		.loc 1 19 0
  27              		.cfi_startproc
  28 0000 F0B5     		push	{r4, r5, r6, r7, lr}
  29              		.cfi_def_cfa_offset 20
  30              		.cfi_offset 4, -20
  31              		.cfi_offset 5, -16
  32              		.cfi_offset 6, -12
  33              		.cfi_offset 7, -8
  34              		.cfi_offset 14, -4
  35 0002 5746     		mov	r7, r10
  36 0004 4E46     		mov	r6, r9
  37 0006 4546     		mov	r5, r8
  38 0008 E0B4     		push	{r5, r6, r7}
ARM GAS  C:\Users\Zeus\AppData\Local\Temp\ccQ1p73j.s 			page 2


  39              		.cfi_def_cfa_offset 32
  40              		.cfi_offset 8, -32
  41              		.cfi_offset 9, -28
  42              		.cfi_offset 10, -24
  43 000a 86B0     		sub	sp, sp, #24
  44              		.cfi_def_cfa_offset 56
  20:main.c        **** 
  21:main.c        ****     I2COLED_Start();
  45              		.loc 1 21 0
  46 000c FFF7FEFF 		bl	I2COLED_Start
  47              	.LVL0:
  22:main.c        **** 
  23:main.c        ****     CyGlobalIntEnable;
  48              		.loc 1 23 0
  49              	@ 23 "main.c" 1
  50 0010 62B6     		CPSIE   i
  51              	@ 0 "" 2
  24:main.c        **** 
  25:main.c        ****     display_init(DISPLAY_ADDRESS);
  52              		.loc 1 25 0
  53              		.code	16
  54 0012 3C20     		mov	r0, #60
  55 0014 FFF7FEFF 		bl	display_init
  56              	.LVL1:
  57              	.L31:
  58              	.LBB2:
  26:main.c        **** 
  27:main.c        ****     
  28:main.c        ****     for(;;){
  29:main.c        **** 
  30:main.c        ****         // clearing display
  31:main.c        ****         display_clear();    
  59              		.loc 1 31 0
  60 0018 FFF7FEFF 		bl	display_clear
  61              	.LVL2:
  32:main.c        ****         display_update();    
  62              		.loc 1 32 0
  63 001c FFF7FEFF 		bl	display_update
  64              	.LVL3:
  33:main.c        **** 
  34:main.c        **** 
  35:main.c        ****         // drawing a pixel
  36:main.c        ****         gfx_drawPixel(40, 40, WHITE);    
  65              		.loc 1 36 0
  66 0020 2820     		mov	r0, #40
  67 0022 2821     		mov	r1, #40
  68 0024 0122     		mov	r2, #1
  69 0026 FFF7FEFF 		bl	gfx_drawPixel
  70              	.LVL4:
  37:main.c        ****         display_update(); 
  71              		.loc 1 37 0
  72 002a FFF7FEFF 		bl	display_update
  73              	.LVL5:
  38:main.c        **** 
  39:main.c        ****         CyDelay(1000);
  74              		.loc 1 39 0
  75 002e FA20     		mov	r0, #250
ARM GAS  C:\Users\Zeus\AppData\Local\Temp\ccQ1p73j.s 			page 3


  76 0030 8000     		lsl	r0, r0, #2
  77 0032 FFF7FEFF 		bl	CyDelay
  78              	.LVL6:
  40:main.c        ****         display_clear();    
  79              		.loc 1 40 0
  80 0036 FFF7FEFF 		bl	display_clear
  81              	.LVL7:
  41:main.c        ****         display_update();    
  82              		.loc 1 41 0
  83 003a FFF7FEFF 		bl	display_update
  84              	.LVL8:
  42:main.c        **** 
  43:main.c        ****         
  44:main.c        ****         // line drawing
  45:main.c        ****         int16_t i = 0;
  46:main.c        ****         for( i = 0 ; i < gfx_width(); i+=4) {
  85              		.loc 1 46 0
  86 003e 0024     		mov	r4, #0
  87 0040 0EE0     		b	.L2
  88              	.LVL9:
  89              	.L3:
  47:main.c        ****             gfx_drawLine(0, 0, i, gfx_height()-1, WHITE);
  90              		.loc 1 47 0 discriminator 3
  91 0042 FFF7FEFF 		bl	gfx_height
  92              	.LVL10:
  93 0046 22B2     		sxth	r2, r4
  94 0048 431E     		sub	r3, r0, #1
  95 004a 1BB2     		sxth	r3, r3
  96 004c 0121     		mov	r1, #1
  97 004e 0091     		str	r1, [sp]
  98 0050 0020     		mov	r0, #0
  99 0052 0021     		mov	r1, #0
 100 0054 FFF7FEFF 		bl	gfx_drawLine
 101              	.LVL11:
  48:main.c        ****             display_update();
 102              		.loc 1 48 0 discriminator 3
 103 0058 FFF7FEFF 		bl	display_update
 104              	.LVL12:
  46:main.c        ****             gfx_drawLine(0, 0, i, gfx_height()-1, WHITE);
 105              		.loc 1 46 0 discriminator 3
 106 005c 0434     		add	r4, r4, #4
 107              	.LVL13:
 108 005e A4B2     		uxth	r4, r4
 109              	.LVL14:
 110              	.L2:
  46:main.c        ****             gfx_drawLine(0, 0, i, gfx_height()-1, WHITE);
 111              		.loc 1 46 0 is_stmt 0 discriminator 1
 112 0060 FFF7FEFF 		bl	gfx_width
 113              	.LVL15:
 114 0064 23B2     		sxth	r3, r4
 115 0066 9842     		cmp	r0, r3
 116 0068 EBDC     		bgt	.L3
 117 006a 0024     		mov	r4, #0
 118              	.LVL16:
 119 006c 0EE0     		b	.L4
 120              	.LVL17:
 121              	.L5:
ARM GAS  C:\Users\Zeus\AppData\Local\Temp\ccQ1p73j.s 			page 4


  49:main.c        ****         }
  50:main.c        ****         for( i = 0 ; i < gfx_height() ; i += 4 ){
  51:main.c        ****             gfx_drawLine(0, 0, gfx_width()-1, i, WHITE);
 122              		.loc 1 51 0 is_stmt 1 discriminator 3
 123 006e FFF7FEFF 		bl	gfx_width
 124              	.LVL18:
 125 0072 421E     		sub	r2, r0, #1
 126 0074 12B2     		sxth	r2, r2
 127 0076 23B2     		sxth	r3, r4
 128 0078 0121     		mov	r1, #1
 129 007a 0091     		str	r1, [sp]
 130 007c 0020     		mov	r0, #0
 131 007e 0021     		mov	r1, #0
 132 0080 FFF7FEFF 		bl	gfx_drawLine
 133              	.LVL19:
  52:main.c        ****             display_update();
 134              		.loc 1 52 0 discriminator 3
 135 0084 FFF7FEFF 		bl	display_update
 136              	.LVL20:
  50:main.c        ****             gfx_drawLine(0, 0, gfx_width()-1, i, WHITE);
 137              		.loc 1 50 0 discriminator 3
 138 0088 0434     		add	r4, r4, #4
 139              	.LVL21:
 140 008a A4B2     		uxth	r4, r4
 141              	.LVL22:
 142              	.L4:
  50:main.c        ****             gfx_drawLine(0, 0, gfx_width()-1, i, WHITE);
 143              		.loc 1 50 0 is_stmt 0 discriminator 1
 144 008c FFF7FEFF 		bl	gfx_height
 145              	.LVL23:
 146 0090 23B2     		sxth	r3, r4
 147 0092 9842     		cmp	r0, r3
 148 0094 EBDC     		bgt	.L5
  53:main.c        ****         }    
  54:main.c        ****      
  55:main.c        ****         CyDelay(3000);
 149              		.loc 1 55 0 is_stmt 1
 150 0096 E248     		ldr	r0, .L32
 151 0098 FFF7FEFF 		bl	CyDelay
 152              	.LVL24:
  56:main.c        ****         display_clear();    
 153              		.loc 1 56 0
 154 009c FFF7FEFF 		bl	display_clear
 155              	.LVL25:
  57:main.c        ****         display_update();    
 156              		.loc 1 57 0
 157 00a0 FFF7FEFF 		bl	display_update
 158              	.LVL26:
  58:main.c        **** 
  59:main.c        ****         // text settings
  60:main.c        ****         gfx_setTextSize(1);
 159              		.loc 1 60 0
 160 00a4 0120     		mov	r0, #1
 161 00a6 FFF7FEFF 		bl	gfx_setTextSize
 162              	.LVL27:
  61:main.c        ****         gfx_setTextColor(WHITE);
 163              		.loc 1 61 0
ARM GAS  C:\Users\Zeus\AppData\Local\Temp\ccQ1p73j.s 			page 5


 164 00aa 0120     		mov	r0, #1
 165 00ac FFF7FEFF 		bl	gfx_setTextColor
 166              	.LVL28:
  62:main.c        ****         gfx_setCursor(0,0);
 167              		.loc 1 62 0
 168 00b0 0020     		mov	r0, #0
 169 00b2 0021     		mov	r1, #0
 170 00b4 FFF7FEFF 		bl	gfx_setCursor
 171              	.LVL29:
  63:main.c        **** 
  64:main.c        ****         // text display
  65:main.c        ****         for( i = 0 ; i < 168 ; i++){
 172              		.loc 1 65 0
 173 00b8 0024     		mov	r4, #0
 174 00ba 07E0     		b	.L6
 175              	.LVL30:
 176              	.L8:
  66:main.c        ****             if( i == '\n' ) 
 177              		.loc 1 66 0
 178 00bc 23B2     		sxth	r3, r4
 179 00be 0A2B     		cmp	r3, #10
 180 00c0 02D0     		beq	.L7
  67:main.c        ****                 continue;
  68:main.c        ****             gfx_write(i);
 181              		.loc 1 68 0
 182 00c2 E0B2     		uxtb	r0, r4
 183 00c4 FFF7FEFF 		bl	gfx_write
 184              	.LVL31:
 185              	.L7:
  65:main.c        ****             if( i == '\n' ) 
 186              		.loc 1 65 0 discriminator 2
 187 00c8 0134     		add	r4, r4, #1
 188              	.LVL32:
 189 00ca A4B2     		uxth	r4, r4
 190              	.LVL33:
 191              	.L6:
  65:main.c        ****             if( i == '\n' ) 
 192              		.loc 1 65 0 is_stmt 0 discriminator 1
 193 00cc 23B2     		sxth	r3, r4
 194 00ce A72B     		cmp	r3, #167
 195 00d0 F4DD     		ble	.L8
  69:main.c        ****           }    
  70:main.c        ****         display_update(); 
 196              		.loc 1 70 0 is_stmt 1
 197 00d2 FFF7FEFF 		bl	display_update
 198              	.LVL34:
  71:main.c        ****         
  72:main.c        ****         CyDelay(3000);
 199              		.loc 1 72 0
 200 00d6 D24C     		ldr	r4, .L32
 201              	.LVL35:
 202 00d8 201C     		mov	r0, r4
 203 00da FFF7FEFF 		bl	CyDelay
 204              	.LVL36:
  73:main.c        ****         display_clear();    
 205              		.loc 1 73 0
 206 00de FFF7FEFF 		bl	display_clear
ARM GAS  C:\Users\Zeus\AppData\Local\Temp\ccQ1p73j.s 			page 6


 207              	.LVL37:
  74:main.c        ****         display_update();    
 208              		.loc 1 74 0
 209 00e2 FFF7FEFF 		bl	display_update
 210              	.LVL38:
  75:main.c        ****         
  76:main.c        ****         // cursor
  77:main.c        ****         gfx_setCursor( 0, 0 );
 211              		.loc 1 77 0
 212 00e6 0020     		mov	r0, #0
 213 00e8 0021     		mov	r1, #0
 214 00ea FFF7FEFF 		bl	gfx_setCursor
 215              	.LVL39:
  78:main.c        ****         
  79:main.c        ****         // text sizes
  80:main.c        ****         gfx_setTextSize(2);
 216              		.loc 1 80 0
 217 00ee 0220     		mov	r0, #2
 218 00f0 FFF7FEFF 		bl	gfx_setTextSize
 219              	.LVL40:
  81:main.c        ****         gfx_write( '8' );
 220              		.loc 1 81 0
 221 00f4 3820     		mov	r0, #56
 222 00f6 FFF7FEFF 		bl	gfx_write
 223              	.LVL41:
  82:main.c        ****         gfx_setTextSize(3);
 224              		.loc 1 82 0
 225 00fa 0320     		mov	r0, #3
 226 00fc FFF7FEFF 		bl	gfx_setTextSize
 227              	.LVL42:
  83:main.c        ****         gfx_write( '8' );
 228              		.loc 1 83 0
 229 0100 3820     		mov	r0, #56
 230 0102 FFF7FEFF 		bl	gfx_write
 231              	.LVL43:
  84:main.c        ****         gfx_setTextSize(4);
 232              		.loc 1 84 0
 233 0106 0420     		mov	r0, #4
 234 0108 FFF7FEFF 		bl	gfx_setTextSize
 235              	.LVL44:
  85:main.c        ****         gfx_write( '8' );
 236              		.loc 1 85 0
 237 010c 3820     		mov	r0, #56
 238 010e FFF7FEFF 		bl	gfx_write
 239              	.LVL45:
  86:main.c        ****         display_update(); 
 240              		.loc 1 86 0
 241 0112 FFF7FEFF 		bl	display_update
 242              	.LVL46:
  87:main.c        ****         
  88:main.c        ****         CyDelay(3000);
 243              		.loc 1 88 0
 244 0116 201C     		mov	r0, r4
 245 0118 FFF7FEFF 		bl	CyDelay
 246              	.LVL47:
  89:main.c        ****         display_clear();    
 247              		.loc 1 89 0
ARM GAS  C:\Users\Zeus\AppData\Local\Temp\ccQ1p73j.s 			page 7


 248 011c FFF7FEFF 		bl	display_clear
 249              	.LVL48:
  90:main.c        ****         display_update();    
 250              		.loc 1 90 0
 251 0120 FFF7FEFF 		bl	display_update
 252              	.LVL49:
  91:main.c        **** 
  92:main.c        ****         // line printing
  93:main.c        ****         gfx_setTextSize(1);
 253              		.loc 1 93 0
 254 0124 0120     		mov	r0, #1
 255 0126 FFF7FEFF 		bl	gfx_setTextSize
 256              	.LVL50:
  94:main.c        ****         gfx_setTextColor(WHITE);
 257              		.loc 1 94 0
 258 012a 0120     		mov	r0, #1
 259 012c FFF7FEFF 		bl	gfx_setTextColor
 260              	.LVL51:
  95:main.c        ****         gfx_setCursor(0,0);
 261              		.loc 1 95 0
 262 0130 0020     		mov	r0, #0
 263 0132 0021     		mov	r1, #0
 264 0134 FFF7FEFF 		bl	gfx_setCursor
 265              	.LVL52:
  96:main.c        ****         gfx_println("test line 1 ...");
 266              		.loc 1 96 0
 267 0138 BA48     		ldr	r0, .L32+4
 268 013a FFF7FEFF 		bl	gfx_println
 269              	.LVL53:
  97:main.c        ****         gfx_println("2nd line ...");
 270              		.loc 1 97 0
 271 013e BA48     		ldr	r0, .L32+8
 272 0140 FFF7FEFF 		bl	gfx_println
 273              	.LVL54:
  98:main.c        ****         display_update();    
 274              		.loc 1 98 0
 275 0144 FFF7FEFF 		bl	display_update
 276              	.LVL55:
  99:main.c        **** 
 100:main.c        ****         CyDelay(3000);
 277              		.loc 1 100 0
 278 0148 201C     		mov	r0, r4
 279 014a FFF7FEFF 		bl	CyDelay
 280              	.LVL56:
 101:main.c        ****         display_clear();    
 281              		.loc 1 101 0
 282 014e FFF7FEFF 		bl	display_clear
 283              	.LVL57:
 102:main.c        ****         display_update();    
 284              		.loc 1 102 0
 285 0152 FFF7FEFF 		bl	display_update
 286              	.LVL58:
 103:main.c        **** 
 104:main.c        ****         
 105:main.c        ****         // scrolling
 106:main.c        ****         gfx_setTextSize(1);
 287              		.loc 1 106 0
ARM GAS  C:\Users\Zeus\AppData\Local\Temp\ccQ1p73j.s 			page 8


 288 0156 0120     		mov	r0, #1
 289 0158 FFF7FEFF 		bl	gfx_setTextSize
 290              	.LVL59:
 107:main.c        ****         gfx_setTextColor(WHITE);
 291              		.loc 1 107 0
 292 015c 0120     		mov	r0, #1
 293 015e FFF7FEFF 		bl	gfx_setTextColor
 294              	.LVL60:
 108:main.c        ****         gfx_setCursor(0,0);
 295              		.loc 1 108 0
 296 0162 0020     		mov	r0, #0
 297 0164 0021     		mov	r1, #0
 298 0166 FFF7FEFF 		bl	gfx_setCursor
 299              	.LVL61:
 109:main.c        **** 
 110:main.c        ****         for( i = 1 ; i < 16 ; i++ ){
 300              		.loc 1 110 0
 301 016a 0124     		mov	r4, #1
 302 016c 04E0     		b	.L9
 303              	.LVL62:
 304              	.L10:
 111:main.c        ****             gfx_println("scroll");
 305              		.loc 1 111 0 discriminator 3
 306 016e AF48     		ldr	r0, .L32+12
 307 0170 FFF7FEFF 		bl	gfx_println
 308              	.LVL63:
 110:main.c        ****             gfx_println("scroll");
 309              		.loc 1 110 0 discriminator 3
 310 0174 0134     		add	r4, r4, #1
 311              	.LVL64:
 312 0176 A4B2     		uxth	r4, r4
 313              	.LVL65:
 314              	.L9:
 110:main.c        ****             gfx_println("scroll");
 315              		.loc 1 110 0 is_stmt 0 discriminator 1
 316 0178 23B2     		sxth	r3, r4
 317 017a 0F2B     		cmp	r3, #15
 318 017c F7DD     		ble	.L10
 112:main.c        ****         
 113:main.c        ****         }
 114:main.c        ****         display_update();    
 319              		.loc 1 114 0 is_stmt 1
 320 017e FFF7FEFF 		bl	display_update
 321              	.LVL66:
 115:main.c        ****         
 116:main.c        ****         
 117:main.c        ****         
 118:main.c        ****         display_scroll(SCROLL_PAGE_0,SCROLL_PAGE_7,SCROLL_RIGHT,SCROLL_SPEED_7);
 322              		.loc 1 118 0
 323 0182 0020     		mov	r0, #0
 324 0184 0721     		mov	r1, #7
 325 0186 2622     		mov	r2, #38
 326 0188 0723     		mov	r3, #7
 327 018a FFF7FEFF 		bl	display_scroll
 328              	.LVL67:
 119:main.c        ****         CyDelay(2000);
 329              		.loc 1 119 0
ARM GAS  C:\Users\Zeus\AppData\Local\Temp\ccQ1p73j.s 			page 9


 330 018e FA24     		mov	r4, #250
 331              	.LVL68:
 332 0190 E400     		lsl	r4, r4, #3
 333 0192 201C     		mov	r0, r4
 334 0194 FFF7FEFF 		bl	CyDelay
 335              	.LVL69:
 120:main.c        ****         display_stopscroll();
 336              		.loc 1 120 0
 337 0198 FFF7FEFF 		bl	display_stopscroll
 338              	.LVL70:
 121:main.c        ****         display_scroll(SCROLL_PAGE_2,SCROLL_PAGE_4,SCROLL_LEFT,SCROLL_SPEED_3);
 339              		.loc 1 121 0
 340 019c 0220     		mov	r0, #2
 341 019e 0421     		mov	r1, #4
 342 01a0 2A22     		mov	r2, #42
 343 01a2 0623     		mov	r3, #6
 344 01a4 FFF7FEFF 		bl	display_scroll
 345              	.LVL71:
 122:main.c        ****         CyDelay(2000);
 346              		.loc 1 122 0
 347 01a8 201C     		mov	r0, r4
 348 01aa FFF7FEFF 		bl	CyDelay
 349              	.LVL72:
 123:main.c        ****         display_stopscroll();
 350              		.loc 1 123 0
 351 01ae FFF7FEFF 		bl	display_stopscroll
 352              	.LVL73:
 124:main.c        ****         
 125:main.c        ****         
 126:main.c        **** 
 127:main.c        ****         CyDelay(3000);
 353              		.loc 1 127 0
 354 01b2 9B48     		ldr	r0, .L32
 355 01b4 FFF7FEFF 		bl	CyDelay
 356              	.LVL74:
 128:main.c        ****         display_clear();    
 357              		.loc 1 128 0
 358 01b8 FFF7FEFF 		bl	display_clear
 359              	.LVL75:
 129:main.c        ****         display_update();    
 360              		.loc 1 129 0
 361 01bc FFF7FEFF 		bl	display_update
 362              	.LVL76:
 130:main.c        ****         
 131:main.c        ****         
 132:main.c        ****         // rectangles
 133:main.c        ****         for( i = 0 ; i < gfx_height()/2 ; i += 2 ){
 363              		.loc 1 133 0
 364 01c0 0024     		mov	r4, #0
 365 01c2 17E0     		b	.L11
 366              	.LVL77:
 367              	.L12:
 134:main.c        ****             gfx_drawRect(i, i, gfx_width()-2*i, gfx_height()-2*i, WHITE);
 368              		.loc 1 134 0 discriminator 3
 369 01c4 FFF7FEFF 		bl	gfx_width
 370              	.LVL78:
 371 01c8 061C     		mov	r6, r0
ARM GAS  C:\Users\Zeus\AppData\Local\Temp\ccQ1p73j.s 			page 10


 372 01ca A5B2     		uxth	r5, r4
 373 01cc EA03     		lsl	r2, r5, #15
 374 01ce 521B     		sub	r2, r2, r5
 375 01d0 5300     		lsl	r3, r2, #1
 376 01d2 9FB2     		uxth	r7, r3
 377 01d4 FFF7FEFF 		bl	gfx_height
 378              	.LVL79:
 379 01d8 21B2     		sxth	r1, r4
 380 01da BA19     		add	r2, r7, r6
 381 01dc 12B2     		sxth	r2, r2
 382 01de 3B18     		add	r3, r7, r0
 383 01e0 1BB2     		sxth	r3, r3
 384 01e2 0120     		mov	r0, #1
 385 01e4 0090     		str	r0, [sp]
 386 01e6 081C     		mov	r0, r1
 387 01e8 FFF7FEFF 		bl	gfx_drawRect
 388              	.LVL80:
 135:main.c        ****             display_update();   
 389              		.loc 1 135 0 discriminator 3
 390 01ec FFF7FEFF 		bl	display_update
 391              	.LVL81:
 133:main.c        ****             gfx_drawRect(i, i, gfx_width()-2*i, gfx_height()-2*i, WHITE);
 392              		.loc 1 133 0 discriminator 3
 393 01f0 0235     		add	r5, r5, #2
 394 01f2 ACB2     		uxth	r4, r5
 395              	.LVL82:
 396              	.L11:
 133:main.c        ****             gfx_drawRect(i, i, gfx_width()-2*i, gfx_height()-2*i, WHITE);
 397              		.loc 1 133 0 is_stmt 0 discriminator 1
 398 01f4 FFF7FEFF 		bl	gfx_height
 399              	.LVL83:
 400 01f8 C30F     		lsr	r3, r0, #31
 401 01fa 1818     		add	r0, r3, r0
 402 01fc 4010     		asr	r0, r0, #1
 403 01fe 00B2     		sxth	r0, r0
 404 0200 23B2     		sxth	r3, r4
 405 0202 9842     		cmp	r0, r3
 406 0204 DEDC     		bgt	.L12
 136:main.c        ****         }
 137:main.c        ****         
 138:main.c        ****         CyDelay(3000);
 407              		.loc 1 138 0 is_stmt 1
 408 0206 8648     		ldr	r0, .L32
 409 0208 FFF7FEFF 		bl	CyDelay
 410              	.LVL84:
 139:main.c        ****         display_clear();    
 411              		.loc 1 139 0
 412 020c FFF7FEFF 		bl	display_clear
 413              	.LVL85:
 140:main.c        ****         display_update();    
 414              		.loc 1 140 0
 415 0210 FFF7FEFF 		bl	display_update
 416              	.LVL86:
 141:main.c        **** 
 142:main.c        ****         // filled rectangles
 143:main.c        ****         uint8_t color = 1;
 417              		.loc 1 143 0
ARM GAS  C:\Users\Zeus\AppData\Local\Temp\ccQ1p73j.s 			page 11


 418 0214 0126     		mov	r6, #1
 144:main.c        ****         for( i = 0 ; i < gfx_height()/2 ; i += 3 ){
 419              		.loc 1 144 0
 420 0216 0024     		mov	r4, #0
 421 0218 1BE0     		b	.L13
 422              	.LVL87:
 423              	.L14:
 145:main.c        ****             // alternate colors
 146:main.c        ****             gfx_fillRect(i, i, gfx_width()-i*2, gfx_height()-i*2, color%2);
 424              		.loc 1 146 0 discriminator 3
 425 021a FFF7FEFF 		bl	gfx_width
 426              	.LVL88:
 427 021e 8046     		mov	r8, r0
 428 0220 A5B2     		uxth	r5, r4
 429 0222 EA03     		lsl	r2, r5, #15
 430 0224 521B     		sub	r2, r2, r5
 431 0226 5300     		lsl	r3, r2, #1
 432 0228 9FB2     		uxth	r7, r3
 433 022a FFF7FEFF 		bl	gfx_height
 434              	.LVL89:
 435 022e 21B2     		sxth	r1, r4
 436 0230 4346     		mov	r3, r8
 437 0232 FA18     		add	r2, r7, r3
 438 0234 12B2     		sxth	r2, r2
 439 0236 3B18     		add	r3, r7, r0
 440 0238 1BB2     		sxth	r3, r3
 441 023a 0120     		mov	r0, #1
 442 023c 3040     		and	r0, r6
 443 023e 0090     		str	r0, [sp]
 444 0240 081C     		mov	r0, r1
 445 0242 FFF7FEFF 		bl	gfx_fillRect
 446              	.LVL90:
 147:main.c        ****             display_update();    
 447              		.loc 1 147 0 discriminator 3
 448 0246 FFF7FEFF 		bl	display_update
 449              	.LVL91:
 148:main.c        ****             color++;
 450              		.loc 1 148 0 discriminator 3
 451 024a 0136     		add	r6, r6, #1
 452              	.LVL92:
 453 024c F6B2     		uxtb	r6, r6
 454              	.LVL93:
 144:main.c        ****             // alternate colors
 455              		.loc 1 144 0 discriminator 3
 456 024e 0335     		add	r5, r5, #3
 457 0250 ACB2     		uxth	r4, r5
 458              	.LVL94:
 459              	.L13:
 144:main.c        ****             // alternate colors
 460              		.loc 1 144 0 is_stmt 0 discriminator 1
 461 0252 FFF7FEFF 		bl	gfx_height
 462              	.LVL95:
 463 0256 C30F     		lsr	r3, r0, #31
 464 0258 1818     		add	r0, r3, r0
 465 025a 4010     		asr	r0, r0, #1
 466 025c 00B2     		sxth	r0, r0
 467 025e 23B2     		sxth	r3, r4
ARM GAS  C:\Users\Zeus\AppData\Local\Temp\ccQ1p73j.s 			page 12


 468 0260 9842     		cmp	r0, r3
 469 0262 DADC     		bgt	.L14
 149:main.c        ****         }    
 150:main.c        **** 
 151:main.c        ****         CyDelay(3000);
 470              		.loc 1 151 0 is_stmt 1
 471 0264 6E48     		ldr	r0, .L32
 472 0266 FFF7FEFF 		bl	CyDelay
 473              	.LVL96:
 152:main.c        ****         display_clear();    
 474              		.loc 1 152 0
 475 026a FFF7FEFF 		bl	display_clear
 476              	.LVL97:
 153:main.c        ****         display_update();    
 477              		.loc 1 153 0
 478 026e FFF7FEFF 		bl	display_update
 479              	.LVL98:
 154:main.c        ****         
 155:main.c        ****         // circles
 156:main.c        ****         for( i = 0 ; i < gfx_height() ; i += 2 ){
 480              		.loc 1 156 0
 481 0272 0025     		mov	r5, #0
 482 0274 15E0     		b	.L15
 483              	.LVL99:
 484              	.L16:
 157:main.c        ****             gfx_drawCircle( gfx_width()/2, gfx_height()/2, i, WHITE );
 485              		.loc 1 157 0 discriminator 3
 486 0276 FFF7FEFF 		bl	gfx_width
 487              	.LVL100:
 488 027a 041C     		mov	r4, r0
 489 027c FFF7FEFF 		bl	gfx_height
 490              	.LVL101:
 491 0280 031C     		mov	r3, r0
 492 0282 E00F     		lsr	r0, r4, #31
 493 0284 0019     		add	r0, r0, r4
 494 0286 4410     		asr	r4, r0, #1
 495 0288 20B2     		sxth	r0, r4
 496 028a D90F     		lsr	r1, r3, #31
 497 028c C918     		add	r1, r1, r3
 498 028e 4B10     		asr	r3, r1, #1
 499 0290 19B2     		sxth	r1, r3
 500 0292 2AB2     		sxth	r2, r5
 501 0294 0123     		mov	r3, #1
 502 0296 FFF7FEFF 		bl	gfx_drawCircle
 503              	.LVL102:
 158:main.c        ****             display_update();    
 504              		.loc 1 158 0 discriminator 3
 505 029a FFF7FEFF 		bl	display_update
 506              	.LVL103:
 156:main.c        ****             gfx_drawCircle( gfx_width()/2, gfx_height()/2, i, WHITE );
 507              		.loc 1 156 0 discriminator 3
 508 029e 0235     		add	r5, r5, #2
 509              	.LVL104:
 510 02a0 ADB2     		uxth	r5, r5
 511              	.LVL105:
 512              	.L15:
 156:main.c        ****             gfx_drawCircle( gfx_width()/2, gfx_height()/2, i, WHITE );
ARM GAS  C:\Users\Zeus\AppData\Local\Temp\ccQ1p73j.s 			page 13


 513              		.loc 1 156 0 is_stmt 0 discriminator 1
 514 02a2 FFF7FEFF 		bl	gfx_height
 515              	.LVL106:
 516 02a6 2BB2     		sxth	r3, r5
 517 02a8 9842     		cmp	r0, r3
 518 02aa E4DC     		bgt	.L16
 159:main.c        ****         }    
 160:main.c        **** 
 161:main.c        ****         CyDelay(3000);
 519              		.loc 1 161 0 is_stmt 1
 520 02ac 5C48     		ldr	r0, .L32
 521 02ae FFF7FEFF 		bl	CyDelay
 522              	.LVL107:
 162:main.c        ****         display_clear();    
 523              		.loc 1 162 0
 524 02b2 FFF7FEFF 		bl	display_clear
 525              	.LVL108:
 163:main.c        ****         display_update();    
 526              		.loc 1 163 0
 527 02b6 FFF7FEFF 		bl	display_update
 528              	.LVL109:
 164:main.c        ****         
 165:main.c        ****         
 166:main.c        ****     #define MIN(x, y) (((x) < (y)) ? (x) : (y))
 167:main.c        ****         
 168:main.c        ****         // triangles
 169:main.c        ****         for( i = 0 ; i < MIN(gfx_width(),gfx_height())/2; i+=5) {
 529              		.loc 1 169 0
 530 02ba 0024     		mov	r4, #0
 531 02bc 3BE0     		b	.L17
 532              	.LVL110:
 533              	.L20:
 170:main.c        ****             gfx_drawTriangle(gfx_width()/2, gfx_height()/2-i,
 534              		.loc 1 170 0 discriminator 7
 535 02be FFF7FEFF 		bl	gfx_width
 536              	.LVL111:
 537 02c2 071C     		mov	r7, r0
 538 02c4 FFF7FEFF 		bl	gfx_height
 539              	.LVL112:
 540 02c8 8146     		mov	r9, r0
 541 02ca A4B2     		uxth	r4, r4
 171:main.c        ****                              gfx_width()/2-i, gfx_height()/2+i,
 542              		.loc 1 171 0 discriminator 7
 543 02cc FFF7FEFF 		bl	gfx_width
 544              	.LVL113:
 545 02d0 8046     		mov	r8, r0
 546 02d2 FFF7FEFF 		bl	gfx_height
 547              	.LVL114:
 548 02d6 061C     		mov	r6, r0
 172:main.c        ****                              gfx_width()/2+i, gfx_height()/2+i, WHITE);
 549              		.loc 1 172 0 discriminator 7
 550 02d8 FFF7FEFF 		bl	gfx_width
 551              	.LVL115:
 552 02dc 051C     		mov	r5, r0
 553 02de FFF7FEFF 		bl	gfx_height
 554              	.LVL116:
 170:main.c        ****             gfx_drawTriangle(gfx_width()/2, gfx_height()/2-i,
ARM GAS  C:\Users\Zeus\AppData\Local\Temp\ccQ1p73j.s 			page 14


 555              		.loc 1 170 0 discriminator 7
 556 02e2 FB0F     		lsr	r3, r7, #31
 557 02e4 DF19     		add	r7, r3, r7
 558 02e6 7F10     		asr	r7, r7, #1
 559 02e8 3FB2     		sxth	r7, r7
 560 02ea 4B46     		mov	r3, r9
 561 02ec D90F     		lsr	r1, r3, #31
 562 02ee 4944     		add	r1, r1, r9
 563 02f0 4910     		asr	r1, r1, #1
 564 02f2 091B     		sub	r1, r1, r4
 565 02f4 09B2     		sxth	r1, r1
 566 02f6 4346     		mov	r3, r8
 567 02f8 DA0F     		lsr	r2, r3, #31
 568 02fa 4244     		add	r2, r2, r8
 569 02fc 5210     		asr	r2, r2, #1
 570 02fe 121B     		sub	r2, r2, r4
 571 0300 12B2     		sxth	r2, r2
 572 0302 F30F     		lsr	r3, r6, #31
 573 0304 9B19     		add	r3, r3, r6
 574 0306 5B10     		asr	r3, r3, #1
 575 0308 E318     		add	r3, r4, r3
 576 030a 1BB2     		sxth	r3, r3
 577 030c EE0F     		lsr	r6, r5, #31
 578 030e 7619     		add	r6, r6, r5
 579 0310 7610     		asr	r6, r6, #1
 580 0312 A619     		add	r6, r4, r6
 581 0314 36B2     		sxth	r6, r6
 582 0316 0096     		str	r6, [sp]
 583 0318 C50F     		lsr	r5, r0, #31
 584 031a 2D18     		add	r5, r5, r0
 585 031c 6D10     		asr	r5, r5, #1
 586 031e 6519     		add	r5, r4, r5
 587 0320 2DB2     		sxth	r5, r5
 588 0322 0195     		str	r5, [sp, #4]
 589 0324 0120     		mov	r0, #1
 590 0326 0290     		str	r0, [sp, #8]
 591 0328 381C     		mov	r0, r7
 592 032a FFF7FEFF 		bl	gfx_drawTriangle
 593              	.LVL117:
 173:main.c        ****             display_update();    
 594              		.loc 1 173 0 discriminator 7
 595 032e FFF7FEFF 		bl	display_update
 596              	.LVL118:
 169:main.c        ****             gfx_drawTriangle(gfx_width()/2, gfx_height()/2-i,
 597              		.loc 1 169 0 discriminator 7
 598 0332 0534     		add	r4, r4, #5
 599              	.LVL119:
 600 0334 A4B2     		uxth	r4, r4
 601              	.LVL120:
 602              	.L17:
 169:main.c        ****             gfx_drawTriangle(gfx_width()/2, gfx_height()/2-i,
 603              		.loc 1 169 0 is_stmt 0 discriminator 1
 604 0336 25B2     		sxth	r5, r4
 605 0338 FFF7FEFF 		bl	gfx_width
 606              	.LVL121:
 607 033c 061C     		mov	r6, r0
 608 033e FFF7FEFF 		bl	gfx_height
ARM GAS  C:\Users\Zeus\AppData\Local\Temp\ccQ1p73j.s 			page 15


 609              	.LVL122:
 610 0342 8642     		cmp	r6, r0
 611 0344 05DA     		bge	.L18
 169:main.c        ****             gfx_drawTriangle(gfx_width()/2, gfx_height()/2-i,
 612              		.loc 1 169 0 discriminator 3
 613 0346 FFF7FEFF 		bl	gfx_width
 614              	.LVL123:
 615 034a C30F     		lsr	r3, r0, #31
 616 034c 1818     		add	r0, r3, r0
 617 034e 4010     		asr	r0, r0, #1
 618 0350 04E0     		b	.L19
 619              	.L18:
 169:main.c        ****             gfx_drawTriangle(gfx_width()/2, gfx_height()/2-i,
 620              		.loc 1 169 0 discriminator 4
 621 0352 FFF7FEFF 		bl	gfx_height
 622              	.LVL124:
 623 0356 C30F     		lsr	r3, r0, #31
 624 0358 1818     		add	r0, r3, r0
 625 035a 4010     		asr	r0, r0, #1
 626              	.L19:
 169:main.c        ****             gfx_drawTriangle(gfx_width()/2, gfx_height()/2-i,
 627              		.loc 1 169 0 discriminator 6
 628 035c 8542     		cmp	r5, r0
 629 035e AEDB     		blt	.L20
 174:main.c        ****         }    
 175:main.c        **** 
 176:main.c        ****         
 177:main.c        ****         CyDelay(3000);
 630              		.loc 1 177 0 is_stmt 1
 631 0360 2F48     		ldr	r0, .L32
 632 0362 FFF7FEFF 		bl	CyDelay
 633              	.LVL125:
 178:main.c        ****         display_clear();    
 634              		.loc 1 178 0
 635 0366 FFF7FEFF 		bl	display_clear
 636              	.LVL126:
 179:main.c        ****         display_update();    
 637              		.loc 1 179 0
 638 036a FFF7FEFF 		bl	display_update
 639              	.LVL127:
 180:main.c        ****        
 181:main.c        ****         // rotation
 182:main.c        ****         int16_t j = 0;
 183:main.c        ****         for( j = 0 ; j < 4 ; j++ ){
 640              		.loc 1 183 0
 641 036e 0023     		mov	r3, #0
 642 0370 9846     		mov	r8, r3
 643 0372 68E0     		b	.L21
 644              	.LVL128:
 645              	.L26:
 184:main.c        ****             gfx_setRotation(j);
 646              		.loc 1 184 0
 647 0374 4346     		mov	r3, r8
 648 0376 6A46     		mov	r2, sp
 649 0378 D375     		strb	r3, [r2, #23]
 650 037a D07D     		ldrb	r0, [r2, #23]
 651 037c FFF7FEFF 		bl	gfx_setRotation
ARM GAS  C:\Users\Zeus\AppData\Local\Temp\ccQ1p73j.s 			page 16


 652              	.LVL129:
 185:main.c        ****             for( i = 0 ; i < MIN(gfx_width(),gfx_height())/2; i+=5) {
 653              		.loc 1 185 0
 654 0380 0024     		mov	r4, #0
 655 0382 3FE0     		b	.L22
 656              	.LVL130:
 657              	.L25:
 186:main.c        ****                 gfx_drawTriangle(gfx_width()/2, gfx_height()/2-i,
 658              		.loc 1 186 0 discriminator 7
 659 0384 FFF7FEFF 		bl	gfx_width
 660              	.LVL131:
 661 0388 8246     		mov	r10, r0
 662 038a FFF7FEFF 		bl	gfx_height
 663              	.LVL132:
 664 038e 071C     		mov	r7, r0
 665 0390 A4B2     		uxth	r4, r4
 187:main.c        ****                                  gfx_width()/2-i, gfx_height()/2+i,
 666              		.loc 1 187 0 discriminator 7
 667 0392 FFF7FEFF 		bl	gfx_width
 668              	.LVL133:
 669 0396 061C     		mov	r6, r0
 670 0398 FFF7FEFF 		bl	gfx_height
 671              	.LVL134:
 672 039c 051C     		mov	r5, r0
 188:main.c        ****                                  gfx_width()/2+i, gfx_height()/2+i, WHITE);
 673              		.loc 1 188 0 discriminator 7
 674 039e FFF7FEFF 		bl	gfx_width
 675              	.LVL135:
 676 03a2 8146     		mov	r9, r0
 677 03a4 FFF7FEFF 		bl	gfx_height
 678              	.LVL136:
 186:main.c        ****                 gfx_drawTriangle(gfx_width()/2, gfx_height()/2-i,
 679              		.loc 1 186 0 discriminator 7
 680 03a8 5346     		mov	r3, r10
 681 03aa DB0F     		lsr	r3, r3, #31
 682 03ac 5344     		add	r3, r3, r10
 683 03ae 5B10     		asr	r3, r3, #1
 684 03b0 1BB2     		sxth	r3, r3
 685 03b2 9A46     		mov	r10, r3
 686 03b4 F90F     		lsr	r1, r7, #31
 687 03b6 C919     		add	r1, r1, r7
 688 03b8 4910     		asr	r1, r1, #1
 689 03ba 091B     		sub	r1, r1, r4
 690 03bc 09B2     		sxth	r1, r1
 691 03be F20F     		lsr	r2, r6, #31
 692 03c0 9219     		add	r2, r2, r6
 693 03c2 5210     		asr	r2, r2, #1
 694 03c4 121B     		sub	r2, r2, r4
 695 03c6 12B2     		sxth	r2, r2
 696 03c8 EB0F     		lsr	r3, r5, #31
 697 03ca 5B19     		add	r3, r3, r5
 698 03cc 5B10     		asr	r3, r3, #1
 699 03ce E318     		add	r3, r4, r3
 700 03d0 1BB2     		sxth	r3, r3
 701 03d2 4D46     		mov	r5, r9
 702 03d4 ED0F     		lsr	r5, r5, #31
 703 03d6 4D44     		add	r5, r5, r9
ARM GAS  C:\Users\Zeus\AppData\Local\Temp\ccQ1p73j.s 			page 17


 704 03d8 6D10     		asr	r5, r5, #1
 705 03da 6519     		add	r5, r4, r5
 706 03dc 2DB2     		sxth	r5, r5
 707 03de 0095     		str	r5, [sp]
 708 03e0 C50F     		lsr	r5, r0, #31
 709 03e2 2D18     		add	r5, r5, r0
 710 03e4 6D10     		asr	r5, r5, #1
 711 03e6 6519     		add	r5, r4, r5
 712 03e8 2DB2     		sxth	r5, r5
 713 03ea 0195     		str	r5, [sp, #4]
 714 03ec 0120     		mov	r0, #1
 715 03ee 0290     		str	r0, [sp, #8]
 716 03f0 5046     		mov	r0, r10
 717 03f2 FFF7FEFF 		bl	gfx_drawTriangle
 718              	.LVL137:
 189:main.c        ****                 display_update(); 
 719              		.loc 1 189 0 discriminator 7
 720 03f6 FFF7FEFF 		bl	display_update
 721              	.LVL138:
 190:main.c        ****                 CyDelay(200);
 722              		.loc 1 190 0 discriminator 7
 723 03fa C820     		mov	r0, #200
 724 03fc FFF7FEFF 		bl	CyDelay
 725              	.LVL139:
 185:main.c        ****                 gfx_drawTriangle(gfx_width()/2, gfx_height()/2-i,
 726              		.loc 1 185 0 discriminator 7
 727 0400 0534     		add	r4, r4, #5
 728              	.LVL140:
 729 0402 A4B2     		uxth	r4, r4
 730              	.LVL141:
 731              	.L22:
 185:main.c        ****                 gfx_drawTriangle(gfx_width()/2, gfx_height()/2-i,
 732              		.loc 1 185 0 is_stmt 0 discriminator 1
 733 0404 25B2     		sxth	r5, r4
 734 0406 FFF7FEFF 		bl	gfx_width
 735              	.LVL142:
 736 040a 061C     		mov	r6, r0
 737 040c FFF7FEFF 		bl	gfx_height
 738              	.LVL143:
 739 0410 8642     		cmp	r6, r0
 740 0412 0DDA     		bge	.L23
 185:main.c        ****                 gfx_drawTriangle(gfx_width()/2, gfx_height()/2-i,
 741              		.loc 1 185 0 discriminator 3
 742 0414 FFF7FEFF 		bl	gfx_width
 743              	.LVL144:
 744 0418 C30F     		lsr	r3, r0, #31
 745 041a 1818     		add	r0, r3, r0
 746 041c 4010     		asr	r0, r0, #1
 747 041e 0CE0     		b	.L24
 748              	.L33:
 749              		.align	2
 750              	.L32:
 751 0420 B80B0000 		.word	3000
 752 0424 00000000 		.word	.LC0
 753 0428 10000000 		.word	.LC2
 754 042c 20000000 		.word	.LC4
 755              	.L23:
ARM GAS  C:\Users\Zeus\AppData\Local\Temp\ccQ1p73j.s 			page 18


 185:main.c        ****                 gfx_drawTriangle(gfx_width()/2, gfx_height()/2-i,
 756              		.loc 1 185 0 discriminator 4
 757 0430 FFF7FEFF 		bl	gfx_height
 758              	.LVL145:
 759 0434 C30F     		lsr	r3, r0, #31
 760 0436 1818     		add	r0, r3, r0
 761 0438 4010     		asr	r0, r0, #1
 762              	.L24:
 185:main.c        ****                 gfx_drawTriangle(gfx_width()/2, gfx_height()/2-i,
 763              		.loc 1 185 0 discriminator 6
 764 043a 8542     		cmp	r5, r0
 765 043c A2DB     		blt	.L25
 183:main.c        ****             gfx_setRotation(j);
 766              		.loc 1 183 0 is_stmt 1 discriminator 2
 767 043e 4346     		mov	r3, r8
 768 0440 0133     		add	r3, r3, #1
 769 0442 9BB2     		uxth	r3, r3
 770 0444 9846     		mov	r8, r3
 771              	.LVL146:
 772              	.L21:
 183:main.c        ****             gfx_setRotation(j);
 773              		.loc 1 183 0 is_stmt 0 discriminator 1
 774 0446 4346     		mov	r3, r8
 775 0448 1BB2     		sxth	r3, r3
 776 044a 032B     		cmp	r3, #3
 777 044c 92DD     		ble	.L26
 191:main.c        ****             }    
 192:main.c        ****         }
 193:main.c        ****         
 194:main.c        ****         CyDelay(3000);
 778              		.loc 1 194 0 is_stmt 1
 779 044e 1848     		ldr	r0, .L34
 780 0450 FFF7FEFF 		bl	CyDelay
 781              	.LVL147:
 195:main.c        ****        
 196:main.c        ****         // invert and dim
 197:main.c        ****         display_invert(1);
 782              		.loc 1 197 0
 783 0454 0120     		mov	r0, #1
 784 0456 FFF7FEFF 		bl	display_invert
 785              	.LVL148:
 198:main.c        ****         CyDelay(1000);
 786              		.loc 1 198 0
 787 045a FA20     		mov	r0, #250
 788 045c 8000     		lsl	r0, r0, #2
 789 045e FFF7FEFF 		bl	CyDelay
 790              	.LVL149:
 199:main.c        ****         
 200:main.c        ****         for( i = 256 ; i >= 0 ; i-- ){
 791              		.loc 1 200 0
 792 0462 8024     		mov	r4, #128
 793 0464 6400     		lsl	r4, r4, #1
 794 0466 07E0     		b	.L27
 795              	.LVL150:
 796              	.L28:
 201:main.c        ****             display_contrast(i); 
 797              		.loc 1 201 0 discriminator 3
ARM GAS  C:\Users\Zeus\AppData\Local\Temp\ccQ1p73j.s 			page 19


 798 0468 E0B2     		uxtb	r0, r4
 799 046a FFF7FEFF 		bl	display_contrast
 800              	.LVL151:
 202:main.c        ****             CyDelay(10);
 801              		.loc 1 202 0 discriminator 3
 802 046e 0A20     		mov	r0, #10
 803 0470 FFF7FEFF 		bl	CyDelay
 804              	.LVL152:
 200:main.c        ****             display_contrast(i); 
 805              		.loc 1 200 0 discriminator 3
 806 0474 013C     		sub	r4, r4, #1
 807              	.LVL153:
 808 0476 A4B2     		uxth	r4, r4
 809              	.LVL154:
 810              	.L27:
 200:main.c        ****             display_contrast(i); 
 811              		.loc 1 200 0 is_stmt 0 discriminator 1
 812 0478 23B2     		sxth	r3, r4
 813 047a 002B     		cmp	r3, #0
 814 047c F4DA     		bge	.L28
 203:main.c        ****         }
 204:main.c        ****         
 205:main.c        ****         
 206:main.c        ****         
 207:main.c        ****         display_invert(0);
 815              		.loc 1 207 0 is_stmt 1
 816 047e 0020     		mov	r0, #0
 817 0480 FFF7FEFF 		bl	display_invert
 818              	.LVL155:
 208:main.c        ****         CyDelay(1000);
 819              		.loc 1 208 0
 820 0484 FA20     		mov	r0, #250
 821 0486 8000     		lsl	r0, r0, #2
 822 0488 FFF7FEFF 		bl	CyDelay
 823              	.LVL156:
 209:main.c        ****         for( i = 0 ; i < 256 ; i++ ){
 824              		.loc 1 209 0
 825 048c 0024     		mov	r4, #0
 826 048e 07E0     		b	.L29
 827              	.LVL157:
 828              	.L30:
 210:main.c        ****             display_contrast(i); 
 829              		.loc 1 210 0 discriminator 3
 830 0490 E0B2     		uxtb	r0, r4
 831 0492 FFF7FEFF 		bl	display_contrast
 832              	.LVL158:
 211:main.c        ****             CyDelay(10);
 833              		.loc 1 211 0 discriminator 3
 834 0496 0A20     		mov	r0, #10
 835 0498 FFF7FEFF 		bl	CyDelay
 836              	.LVL159:
 209:main.c        ****         for( i = 0 ; i < 256 ; i++ ){
 837              		.loc 1 209 0 discriminator 3
 838 049c 0134     		add	r4, r4, #1
 839              	.LVL160:
 840 049e A4B2     		uxth	r4, r4
 841              	.LVL161:
ARM GAS  C:\Users\Zeus\AppData\Local\Temp\ccQ1p73j.s 			page 20


 842              	.L29:
 209:main.c        ****         for( i = 0 ; i < 256 ; i++ ){
 843              		.loc 1 209 0 is_stmt 0 discriminator 1
 844 04a0 23B2     		sxth	r3, r4
 845 04a2 FF2B     		cmp	r3, #255
 846 04a4 F4DD     		ble	.L30
 212:main.c        ****         }
 213:main.c        ****         
 214:main.c        ****     
 215:main.c        ****         CyDelay(3000);
 847              		.loc 1 215 0 is_stmt 1
 848 04a6 0248     		ldr	r0, .L34
 849 04a8 FFF7FEFF 		bl	CyDelay
 850              	.LVL162:
 851              	.LBE2:
 216:main.c        **** 
 217:main.c        ****     
 218:main.c        ****     
 219:main.c        ****     
 220:main.c        ****     }
 852              		.loc 1 220 0
 853 04ac B4E5     		b	.L31
 854              	.L35:
 855 04ae C046     		.align	2
 856              	.L34:
 857 04b0 B80B0000 		.word	3000
 858              		.cfi_endproc
 859              	.LFE35:
 860              		.size	main, .-main
 861              		.section	.rodata.str1.4,"aMS",%progbits,1
 862              		.align	2
 863              	.LC0:
 864 0000 74657374 		.ascii	"test line 1 ...\000"
 864      206C696E 
 864      65203120 
 864      2E2E2E00 
 865              	.LC2:
 866 0010 326E6420 		.ascii	"2nd line ...\000"
 866      6C696E65 
 866      202E2E2E 
 866      00
 867 001d 000000   		.space	3
 868              	.LC4:
 869 0020 7363726F 		.ascii	"scroll\000"
 869      6C6C00
 870 0027 00       		.text
 871              	.Letext0:
 872              		.file 2 "c:\\program files (x86)\\cypress\\psoc creator\\4.0\\psoc creator\\import\\gnu\\arm\\4.9.
 873              		.file 3 "c:\\program files (x86)\\cypress\\psoc creator\\4.0\\psoc creator\\import\\gnu\\arm\\4.9.
 874              		.file 4 "Generated_Source\\PSoC4/cytypes.h"
 875              		.file 5 "ssd1306.h"
 876              		.file 6 "Generated_Source\\PSoC4/CyLib.h"
 877              		.file 7 "Generated_Source\\PSoC4/I2COLED.h"